target datalayout = "e-m:e-p270:32:32-p271:32:32-p272:64:64-i64:64-i128:128-f80:128-n8:16:32:64-S128"
target triple = "x86_64-pc-linux-gnu"

%struct.FunctionCallInfoBaseData = type { ptr, ptr, ptr, i32, i8, i16, [0 x %struct.NullableDatum] }
%struct.NullableDatum = type { i64, i8 }
%struct.StringInfoData = type { ptr, i32, i32, i32 }
%struct.anon = type { i32, [0 x i8] }
%struct.JsonAggState = type { ptr, i32, i32, i32, i32, %struct.JsonUniqueBuilderState }
%struct.JsonUniqueBuilderState = type { ptr, %struct.StringInfoData, ptr }

@.str.4 = private unnamed_addr constant [2 x i8] c"]\00", align 1

; Function Attrs: inlinehint nounwind uwtable
define internal i64 @PointerGetDatum(ptr noundef %0) #2 {
  %2 = alloca ptr, align 8
  store ptr %0, ptr %2, align 8
  %3 = load ptr, ptr %2, align 8
  %4 = ptrtoint ptr %3 to i64
  ret i64 %4
}

; Function Attrs: nounwind uwtable
define internal ptr @catenate_stringinfo_string(ptr noundef %0, ptr noundef %1) #0 {
  %3 = alloca ptr, align 8
  %4 = alloca ptr, align 8
  %5 = alloca i32, align 4
  %6 = alloca i32, align 4
  %7 = alloca ptr, align 8
  store ptr %0, ptr %3, align 8
  store ptr %1, ptr %4, align 8
  call void @llvm.lifetime.start.p0(i64 4, ptr %5) #14
  %8 = load ptr, ptr %3, align 8
  %9 = getelementptr inbounds nuw %struct.StringInfoData, ptr %8, i32 0, i32 1
  %10 = load i32, ptr %9, align 8
  store i32 %10, ptr %5, align 4
  call void @llvm.lifetime.start.p0(i64 4, ptr %6) #14
  %11 = load ptr, ptr %4, align 8
  %12 = call i64 @strlen(ptr noundef %11) #16
  %13 = trunc i64 %12 to i32
  store i32 %13, ptr %6, align 4
  call void @llvm.lifetime.start.p0(i64 8, ptr %7) #14
  %14 = load i32, ptr %5, align 4
  %15 = load i32, ptr %6, align 4
  %16 = add i32 %14, %15
  %17 = add i32 %16, 4
  %18 = sext i32 %17 to i64
  %19 = call ptr @palloc(i64 noundef %18)
  store ptr %19, ptr %7, align 8
  %20 = load i32, ptr %5, align 4
  %21 = load i32, ptr %6, align 4
  %22 = add i32 %20, %21
  %23 = add i32 %22, 4
  %24 = shl i32 %23, 2
  %25 = load ptr, ptr %7, align 8
  %26 = getelementptr inbounds nuw %struct.anon, ptr %25, i32 0, i32 0
  store i32 %24, ptr %26, align 4
  %27 = load ptr, ptr %7, align 8
  %28 = getelementptr inbounds nuw %struct.anon, ptr %27, i32 0, i32 1
  %29 = getelementptr inbounds [0 x i8], ptr %28, i64 0, i64 0
  %30 = load ptr, ptr %3, align 8
  %31 = getelementptr inbounds nuw %struct.StringInfoData, ptr %30, i32 0, i32 0
  %32 = load ptr, ptr %31, align 8
  %33 = load i32, ptr %5, align 4
  %34 = sext i32 %33 to i64
  call void @llvm.memcpy.p0.p0.i64(ptr align 4 %29, ptr align 1 %32, i64 %34, i1 false)
  %35 = load ptr, ptr %7, align 8
  %36 = getelementptr inbounds nuw %struct.anon, ptr %35, i32 0, i32 1
  %37 = getelementptr inbounds [0 x i8], ptr %36, i64 0, i64 0
  %38 = load i32, ptr %5, align 4
  %39 = sext i32 %38 to i64
  %40 = getelementptr inbounds i8, ptr %37, i64 %39
  %41 = load ptr, ptr %4, align 8
  %42 = load i32, ptr %6, align 4
  %43 = sext i32 %42 to i64
  call void @llvm.memcpy.p0.p0.i64(ptr align 1 %40, ptr align 1 %41, i64 %43, i1 false)
  %44 = load ptr, ptr %7, align 8
  call void @llvm.lifetime.end.p0(i64 8, ptr %7) #14
  call void @llvm.lifetime.end.p0(i64 4, ptr %6) #14
  call void @llvm.lifetime.end.p0(i64 4, ptr %5) #14
  ret ptr %44
}

; Function Attrs: inlinehint nounwind uwtable
define internal ptr @DatumGetPointer(i64 noundef %0) #2 {
  %2 = alloca i64, align 8
  store i64 %0, ptr %2, align 8
  %3 = load i64, ptr %2, align 8
  %4 = inttoptr i64 %3 to ptr
  ret ptr %4
}

; Function Attrs: nounwind uwtable
define dso_local i64 @json_agg_finalfn(ptr noundef %0) #0 {
  %2 = alloca i64, align 8
  %3 = alloca ptr, align 8
  %4 = alloca ptr, align 8
  %5 = alloca i32, align 4
  store ptr %0, ptr %3, align 8
  call void @llvm.lifetime.start.p0(i64 8, ptr %4) #14
  %6 = load ptr, ptr %3, align 8
  %7 = getelementptr inbounds nuw %struct.FunctionCallInfoBaseData, ptr %6, i32 0, i32 6
  %8 = getelementptr inbounds [0 x %struct.NullableDatum], ptr %7, i64 0, i64 0
  %9 = getelementptr inbounds nuw %struct.NullableDatum, ptr %8, i32 0, i32 1
  %10 = load i8, ptr %9, align 8, !range !4, !noundef !5
  %11 = trunc i8 %10 to i1
  br i1 %11, label %12, label %13

12:                                               ; preds = %1
  br label %20

13:                                               ; preds = %1
  %14 = load ptr, ptr %3, align 8
  %15 = getelementptr inbounds nuw %struct.FunctionCallInfoBaseData, ptr %14, i32 0, i32 6
  %16 = getelementptr inbounds [0 x %struct.NullableDatum], ptr %15, i64 0, i64 0
  %17 = getelementptr inbounds nuw %struct.NullableDatum, ptr %16, i32 0, i32 0
  %18 = load i64, ptr %17, align 8
  %19 = call ptr @DatumGetPointer(i64 noundef %18)
  br label %20

20:                                               ; preds = %13, %12
  %21 = phi ptr [ null, %12 ], [ %19, %13 ]
  store ptr %21, ptr %4, align 8
  %22 = load ptr, ptr %4, align 8
  %23 = icmp eq ptr %22, null
  br i1 %23, label %24, label %30

24:                                               ; preds = %20
  br label %25

25:                                               ; preds = %24
  %26 = load ptr, ptr %3, align 8
  %27 = getelementptr inbounds nuw %struct.FunctionCallInfoBaseData, ptr %26, i32 0, i32 4
  store i8 1, ptr %27, align 4
  store i64 0, ptr %2, align 8
  store i32 1, ptr %5, align 4
  br label %36

28:                                               ; No predecessors!
  br label %29

29:                                               ; preds = %28
  br label %30

30:                                               ; preds = %29, %20
  %31 = load ptr, ptr %4, align 8
  %32 = getelementptr inbounds nuw %struct.JsonAggState, ptr %31, i32 0, i32 0
  %33 = load ptr, ptr %32, align 8
  %34 = call ptr @catenate_stringinfo_string(ptr noundef %33, ptr noundef @.str.4)
  %35 = call i64 @PointerGetDatum(ptr noundef %34)
  store i64 %35, ptr %2, align 8
  store i32 1, ptr %5, align 4
  br label %36

36:                                               ; preds = %30, %25
  call void @llvm.lifetime.end.p0(i64 8, ptr %4) #14
  %37 = load i64, ptr %2, align 8
  ret i64 %37
}